target datalayout = "e-m:e-p270:32:32-p271:32:32-p272:64:64-i64:64-i128:128-f80:128-n8:16:32:64-S128"
target triple = "x86_64-pc-linux-gnu"

%struct.archive_entry_linkresolver = type { ptr, ptr, i64, i64, i32 }
%struct.links_entry = type { ptr, ptr, ptr, ptr, i64, i32 }

; Function Attrs: nounwind uwtable
define internal ptr @find_entry(ptr noundef %0, ptr noundef %1) #0 {
  %3 = alloca ptr, align 8
  %4 = alloca ptr, align 8
  %5 = alloca ptr, align 8
  %6 = alloca ptr, align 8
  %7 = alloca i64, align 8
  %8 = alloca i64, align 8
  %9 = alloca i64, align 8
  %10 = alloca i64, align 8
  %11 = alloca i32, align 4
  store ptr %0, ptr %4, align 8, !tbaa !4
  store ptr %1, ptr %5, align 8, !tbaa !34
  call void @llvm.lifetime.start.p0(i64 8, ptr %6) #5
  call void @llvm.lifetime.start.p0(i64 8, ptr %7) #5
  call void @llvm.lifetime.start.p0(i64 8, ptr %8) #5
  call void @llvm.lifetime.start.p0(i64 8, ptr %9) #5
  call void @llvm.lifetime.start.p0(i64 8, ptr %10) #5
  %12 = load ptr, ptr %4, align 8, !tbaa !4
  %13 = getelementptr inbounds nuw %struct.archive_entry_linkresolver, ptr %12, i32 0, i32 1
  %14 = load ptr, ptr %13, align 8, !tbaa !24
  %15 = icmp ne ptr %14, null
  br i1 %15, label %16, label %32

16:                                               ; preds = %2
  %17 = load ptr, ptr %4, align 8, !tbaa !4
  %18 = getelementptr inbounds nuw %struct.archive_entry_linkresolver, ptr %17, i32 0, i32 1
  %19 = load ptr, ptr %18, align 8, !tbaa !24
  %20 = getelementptr inbounds nuw %struct.links_entry, ptr %19, i32 0, i32 2
  %21 = load ptr, ptr %20, align 8, !tbaa !25
  call void @archive_entry_free(ptr noundef %21)
  %22 = load ptr, ptr %4, align 8, !tbaa !4
  %23 = getelementptr inbounds nuw %struct.archive_entry_linkresolver, ptr %22, i32 0, i32 1
  %24 = load ptr, ptr %23, align 8, !tbaa !24
  %25 = getelementptr inbounds nuw %struct.links_entry, ptr %24, i32 0, i32 3
  %26 = load ptr, ptr %25, align 8, !tbaa !19
  call void @archive_entry_free(ptr noundef %26)
  %27 = load ptr, ptr %4, align 8, !tbaa !4
  %28 = getelementptr inbounds nuw %struct.archive_entry_linkresolver, ptr %27, i32 0, i32 1
  %29 = load ptr, ptr %28, align 8, !tbaa !24
  call void @free(ptr noundef %29) #5
  %30 = load ptr, ptr %4, align 8, !tbaa !4
  %31 = getelementptr inbounds nuw %struct.archive_entry_linkresolver, ptr %30, i32 0, i32 1
  store ptr null, ptr %31, align 8, !tbaa !24
  br label %32

32:                                               ; preds = %16, %2
  %33 = load ptr, ptr %5, align 8, !tbaa !34
  %34 = call i64 @archive_entry_dev(ptr noundef %33)
  store i64 %34, ptr %9, align 8, !tbaa !26
  %35 = load ptr, ptr %5, align 8, !tbaa !34
  %36 = call i64 @archive_entry_ino64(ptr noundef %35)
  store i64 %36, ptr %10, align 8, !tbaa !26
  %37 = load i64, ptr %9, align 8, !tbaa !26
  %38 = load i64, ptr %10, align 8, !tbaa !26
  %39 = xor i64 %37, %38
  store i64 %39, ptr %7, align 8, !tbaa !26
  %40 = load i64, ptr %7, align 8, !tbaa !26
  %41 = load ptr, ptr %4, align 8, !tbaa !4
  %42 = getelementptr inbounds nuw %struct.archive_entry_linkresolver, ptr %41, i32 0, i32 3
  %43 = load i64, ptr %42, align 8, !tbaa !9
  %44 = sub i64 %43, 1
  %45 = and i64 %40, %44
  store i64 %45, ptr %8, align 8, !tbaa !26
  %46 = load ptr, ptr %4, align 8, !tbaa !4
  %47 = getelementptr inbounds nuw %struct.archive_entry_linkresolver, ptr %46, i32 0, i32 0
  %48 = load ptr, ptr %47, align 8, !tbaa !15
  %49 = load i64, ptr %8, align 8, !tbaa !26
  %50 = getelementptr inbounds nuw ptr, ptr %48, i64 %49
  %51 = load ptr, ptr %50, align 8, !tbaa !18
  store ptr %51, ptr %6, align 8, !tbaa !18
  br label %52

52:                                               ; preds = %140, %32
  %53 = load ptr, ptr %6, align 8, !tbaa !18
  %54 = icmp ne ptr %53, null
  br i1 %54, label %55, label %144

55:                                               ; preds = %52
  %56 = load ptr, ptr %6, align 8, !tbaa !18
  %57 = getelementptr inbounds nuw %struct.links_entry, ptr %56, i32 0, i32 4
  %58 = load i64, ptr %57, align 8, !tbaa !36
  %59 = load i64, ptr %7, align 8, !tbaa !26
  %60 = icmp eq i64 %58, %59
  br i1 %60, label %61, label %139

61:                                               ; preds = %55
  %62 = load i64, ptr %9, align 8, !tbaa !26
  %63 = load ptr, ptr %6, align 8, !tbaa !18
  %64 = getelementptr inbounds nuw %struct.links_entry, ptr %63, i32 0, i32 2
  %65 = load ptr, ptr %64, align 8, !tbaa !25
  %66 = call i64 @archive_entry_dev(ptr noundef %65)
  %67 = icmp eq i64 %62, %66
  br i1 %67, label %68, label %139

68:                                               ; preds = %61
  %69 = load i64, ptr %10, align 8, !tbaa !26
  %70 = load ptr, ptr %6, align 8, !tbaa !18
  %71 = getelementptr inbounds nuw %struct.links_entry, ptr %70, i32 0, i32 2
  %72 = load ptr, ptr %71, align 8, !tbaa !25
  %73 = call i64 @archive_entry_ino64(ptr noundef %72)
  %74 = icmp eq i64 %69, %73
  br i1 %74, label %75, label %139

75:                                               ; preds = %68
  %76 = load ptr, ptr %6, align 8, !tbaa !18
  %77 = getelementptr inbounds nuw %struct.links_entry, ptr %76, i32 0, i32 5
  %78 = load i32, ptr %77, align 8, !tbaa !35
  %79 = add i32 %78, -1
  store i32 %79, ptr %77, align 8, !tbaa !35
  %80 = load ptr, ptr %6, align 8, !tbaa !18
  %81 = getelementptr inbounds nuw %struct.links_entry, ptr %80, i32 0, i32 5
  %82 = load i32, ptr %81, align 8, !tbaa !35
  %83 = icmp ugt i32 %82, 0
  br i1 %83, label %84, label %86

84:                                               ; preds = %75
  %85 = load ptr, ptr %6, align 8, !tbaa !18
  store ptr %85, ptr %3, align 8
  store i32 1, ptr %11, align 4
  br label %145

86:                                               ; preds = %75
  %87 = load ptr, ptr %6, align 8, !tbaa !18
  %88 = getelementptr inbounds nuw %struct.links_entry, ptr %87, i32 0, i32 1
  %89 = load ptr, ptr %88, align 8, !tbaa !28
  %90 = icmp ne ptr %89, null
  br i1 %90, label %91, label %99

91:                                               ; preds = %86
  %92 = load ptr, ptr %6, align 8, !tbaa !18
  %93 = getelementptr inbounds nuw %struct.links_entry, ptr %92, i32 0, i32 0
  %94 = load ptr, ptr %93, align 8, !tbaa !27
  %95 = load ptr, ptr %6, align 8, !tbaa !18
  %96 = getelementptr inbounds nuw %struct.links_entry, ptr %95, i32 0, i32 1
  %97 = load ptr, ptr %96, align 8, !tbaa !28
  %98 = getelementptr inbounds nuw %struct.links_entry, ptr %97, i32 0, i32 0
  store ptr %94, ptr %98, align 8, !tbaa !27
  br label %99

99:                                               ; preds = %91, %86
  %100 = load ptr, ptr %6, align 8, !tbaa !18
  %101 = getelementptr inbounds nuw %struct.links_entry, ptr %100, i32 0, i32 0
  %102 = load ptr, ptr %101, align 8, !tbaa !27
  %103 = icmp ne ptr %102, null
  br i1 %103, label %104, label %112

104:                                              ; preds = %99
  %105 = load ptr, ptr %6, align 8, !tbaa !18
  %106 = getelementptr inbounds nuw %struct.links_entry, ptr %105, i32 0, i32 1
  %107 = load ptr, ptr %106, align 8, !tbaa !28
  %108 = load ptr, ptr %6, align 8, !tbaa !18
  %109 = getelementptr inbounds nuw %struct.links_entry, ptr %108, i32 0, i32 0
  %110 = load ptr, ptr %109, align 8, !tbaa !27
  %111 = getelementptr inbounds nuw %struct.links_entry, ptr %110, i32 0, i32 1
  store ptr %107, ptr %111, align 8, !tbaa !28
  br label %112

112:                                              ; preds = %104, %99
  %113 = load ptr, ptr %4, align 8, !tbaa !4
  %114 = getelementptr inbounds nuw %struct.archive_entry_linkresolver, ptr %113, i32 0, i32 0
  %115 = load ptr, ptr %114, align 8, !tbaa !15
  %116 = load i64, ptr %8, align 8, !tbaa !26
  %117 = getelementptr inbounds nuw ptr, ptr %115, i64 %116
  %118 = load ptr, ptr %117, align 8, !tbaa !18
  %119 = load ptr, ptr %6, align 8, !tbaa !18
  %120 = icmp eq ptr %118, %119
  br i1 %120, label %121, label %130

121:                                              ; preds = %112
  %122 = load ptr, ptr %6, align 8, !tbaa !18
  %123 = getelementptr inbounds nuw %struct.links_entry, ptr %122, i32 0, i32 0
  %124 = load ptr, ptr %123, align 8, !tbaa !27
  %125 = load ptr, ptr %4, align 8, !tbaa !4
  %126 = getelementptr inbounds nuw %struct.archive_entry_linkresolver, ptr %125, i32 0, i32 0
  %127 = load ptr, ptr %126, align 8, !tbaa !15
  %128 = load i64, ptr %8, align 8, !tbaa !26
  %129 = getelementptr inbounds nuw ptr, ptr %127, i64 %128
  store ptr %124, ptr %129, align 8, !tbaa !18
  br label %130

130:                                              ; preds = %121, %112
  %131 = load ptr, ptr %4, align 8, !tbaa !4
  %132 = getelementptr inbounds nuw %struct.archive_entry_linkresolver, ptr %131, i32 0, i32 2
  %133 = load i64, ptr %132, align 8, !tbaa !29
  %134 = add i64 %133, -1
  store i64 %134, ptr %132, align 8, !tbaa !29
  %135 = load ptr, ptr %6, align 8, !tbaa !18
  %136 = load ptr, ptr %4, align 8, !tbaa !4
  %137 = getelementptr inbounds nuw %struct.archive_entry_linkresolver, ptr %136, i32 0, i32 1
  store ptr %135, ptr %137, align 8, !tbaa !24
  %138 = load ptr, ptr %6, align 8, !tbaa !18
  store ptr %138, ptr %3, align 8
  store i32 1, ptr %11, align 4
  br label %145

139:                                              ; preds = %68, %61, %55
  br label %140

140:                                              ; preds = %139
  %141 = load ptr, ptr %6, align 8, !tbaa !18
  %142 = getelementptr inbounds nuw %struct.links_entry, ptr %141, i32 0, i32 0
  %143 = load ptr, ptr %142, align 8, !tbaa !27
  store ptr %143, ptr %6, align 8, !tbaa !18
  br label %52, !llvm.loop !37

144:                                              ; preds = %52
  store ptr null, ptr %3, align 8
  store i32 1, ptr %11, align 4
  br label %145

145:                                              ; preds = %144, %130, %84
  call void @llvm.lifetime.end.p0(i64 8, ptr %10) #5
  call void @llvm.lifetime.end.p0(i64 8, ptr %9) #5
  call void @llvm.lifetime.end.p0(i64 8, ptr %8) #5
  call void @llvm.lifetime.end.p0(i64 8, ptr %7) #5
  call void @llvm.lifetime.end.p0(i64 8, ptr %6) #5
  %146 = load ptr, ptr %3, align 8
  ret ptr %146
}