; Function Attrs: nounwind uwtable
define internal fastcc ptr @find_entry(ptr noundef captures(none) %0, ptr noundef %1) unnamed_addr #4 {
  %3 = getelementptr inbounds nuw i8, ptr %0, i64 8
  %4 = load ptr, ptr %3, align 8, !tbaa !15
  %.not = icmp eq ptr %4, null
  br i1 %.not, label %12, label %5

5:                                                ; preds = %2
  %6 = getelementptr inbounds nuw i8, ptr %4, i64 16
  %7 = load ptr, ptr %6, align 8, !tbaa !16
  tail call void @archive_entry_free(ptr noundef %7) #7
  %8 = load ptr, ptr %3, align 8, !tbaa !15
  %9 = getelementptr inbounds nuw i8, ptr %8, i64 24
  %10 = load ptr, ptr %9, align 8, !tbaa !19
  tail call void @archive_entry_free(ptr noundef %10) #7
  %11 = load ptr, ptr %3, align 8, !tbaa !15
  tail call void @free(ptr noundef %11) #7
  store ptr null, ptr %3, align 8, !tbaa !15
  br label %12

12:                                               ; preds = %5, %2
  %13 = tail call i64 @archive_entry_dev(ptr noundef %1) #7
  %14 = tail call i64 @archive_entry_ino64(ptr noundef %1) #7
  %15 = xor i64 %14, %13
  %16 = getelementptr inbounds nuw i8, ptr %0, i64 24
  %17 = load i64, ptr %16, align 8, !tbaa !4
  %18 = add i64 %17, -1
  %19 = and i64 %18, %15
  %20 = load ptr, ptr %0, align 8, !tbaa !13
  %21 = getelementptr inbounds nuw ptr, ptr %20, i64 %19
  %.04050 = load ptr, ptr %21, align 8, !tbaa !20
  %.not4451 = icmp eq ptr %.04050, null
  br i1 %.not4451, label %.loopexit, label %.lr.ph

.lr.ph:                                           ; preds = %12, %55
  %.04052 = phi ptr [ %.040, %55 ], [ %.04050, %12 ]
  %22 = getelementptr inbounds nuw i8, ptr %.04052, i64 32
  %23 = load i64, ptr %22, align 8, !tbaa !30
  %24 = icmp eq i64 %23, %15
  br i1 %24, label %25, label %55

25:                                               ; preds = %.lr.ph
  %26 = getelementptr inbounds nuw i8, ptr %.04052, i64 16
  %27 = load ptr, ptr %26, align 8, !tbaa !16
  %28 = tail call i64 @archive_entry_dev(ptr noundef %27) #7
  %29 = icmp eq i64 %13, %28
  br i1 %29, label %30, label %55

30:                                               ; preds = %25
  %31 = load ptr, ptr %26, align 8, !tbaa !16
  %32 = tail call i64 @archive_entry_ino64(ptr noundef %31) #7
  %33 = icmp eq i64 %14, %32
  br i1 %33, label %34, label %55

34:                                               ; preds = %30
  %35 = getelementptr inbounds nuw i8, ptr %.04052, i64 40
  %36 = load i32, ptr %35, align 8, !tbaa !29
  %37 = add i32 %36, -1
  store i32 %37, ptr %35, align 8, !tbaa !29
  %.not45 = icmp eq i32 %37, 0
  br i1 %.not45, label %38, label %.loopexit

38:                                               ; preds = %34
  %39 = getelementptr inbounds nuw i8, ptr %.04052, i64 8
  %40 = load ptr, ptr %39, align 8, !tbaa !22
  %.not46 = icmp eq ptr %40, null
  %.pre = load ptr, ptr %.04052, align 8, !tbaa !21
  br i1 %.not46, label %42, label %41

41:                                               ; preds = %38
  store ptr %.pre, ptr %40, align 8, !tbaa !21
  br label %42

42:                                               ; preds = %41, %38
  %.not47 = icmp eq ptr %.pre, null
  br i1 %.not47, label %45, label %43

43:                                               ; preds = %42
  %44 = getelementptr inbounds nuw i8, ptr %.pre, i64 8
  store ptr %40, ptr %44, align 8, !tbaa !22
  br label %45

45:                                               ; preds = %43, %42
  %46 = load ptr, ptr %0, align 8, !tbaa !13
  %47 = getelementptr inbounds nuw ptr, ptr %46, i64 %19
  %48 = load ptr, ptr %47, align 8, !tbaa !20
  %49 = icmp eq ptr %48, %.04052
  br i1 %49, label %50, label %51

50:                                               ; preds = %45
  store ptr %.pre, ptr %47, align 8, !tbaa !20
  br label %51

51:                                               ; preds = %50, %45
  %52 = getelementptr inbounds nuw i8, ptr %0, i64 16
  %53 = load i64, ptr %52, align 8, !tbaa !25
  %54 = add i64 %53, -1
  store i64 %54, ptr %52, align 8, !tbaa !25
  store ptr %.04052, ptr %3, align 8, !tbaa !15
  br label %.loopexit

55:                                               ; preds = %.lr.ph, %25, %30
  %.040 = load ptr, ptr %.04052, align 8, !tbaa !20
  %.not44 = icmp eq ptr %.040, null
  br i1 %.not44, label %.loopexit, label %.lr.ph, !llvm.loop !31

.loopexit:                                        ; preds = %55, %12, %34, %51
  %.04049 = phi ptr [ %.04052, %34 ], [ %.04052, %51 ], [ null, %12 ], [ null, %55 ]
  ret ptr %.04049
}